; Function Attrs: mustprogress uwtable
define noundef ptr @_ZN9grpc_core8internal50alts_handshaker_client_get_send_buffer_for_testingEP22alts_handshaker_client(ptr noundef readonly %c) local_unnamed_addr #3 {
entry:
  %cmp.not = icmp eq ptr %c, null
  br i1 %cmp.not, label %if.then, label %do.end

if.then:                                          ; preds = %entry
  tail call void @gpr_assertion_failed(ptr noundef nonnull @.str, i32 noundef 769, ptr noundef nonnull @.str.1) #17
  unreachable

do.end:                                           ; preds = %entry
  %send_buffer = getelementptr inbounds i8, ptr %c, i64 72
  %0 = load ptr, ptr %send_buffer, align 8
  ret ptr %0
}